; Function Attrs: nounwind uwtable
define hidden noundef ptr @SDL_bsearch_REAL(ptr noundef %0, ptr noundef %1, i64 noundef %2, i64 noundef %3, ptr noundef readonly captures(none) %4) local_unnamed_addr #0 {
  %.not21.i = icmp eq i64 %2, 0
  br i1 %.not21.i, label %SDL_bsearch_r_REAL.exit, label %.lr.ph.i

.lr.ph.i:                                         ; preds = %5, %18
  %.01723.i = phi ptr [ %.1.i, %18 ], [ %1, %5 ]
  %.01822.i = phi i64 [ %.119.i, %18 ], [ %2, %5 ]
  %6 = lshr i64 %.01822.i, 1
  %7 = mul i64 %6, %3
  %8 = getelementptr inbounds nuw i8, ptr %.01723.i, i64 %7
  %9 = tail call i32 %4(ptr noundef %0, ptr noundef %8) #5
  %10 = icmp sgt i32 %9, 0
  br i1 %10, label %11, label %16

11:                                               ; preds = %.lr.ph.i
  %12 = and i64 %.01822.i, 1
  %13 = getelementptr inbounds nuw i8, ptr %8, i64 %3
  %14 = xor i64 %12, 1
  %15 = sub nsw i64 %6, %14
  br label %18

16:                                               ; preds = %.lr.ph.i
  %17 = icmp eq i32 %9, 0
  br i1 %17, label %SDL_bsearch_r_REAL.exit, label %18

18:                                               ; preds = %16, %11
  %.119.i = phi i64 [ %15, %11 ], [ %6, %16 ]
  %.1.i = phi ptr [ %13, %11 ], [ %.01723.i, %16 ]
  %.not.i = icmp eq i64 %.119.i, 0
  br i1 %.not.i, label %SDL_bsearch_r_REAL.exit, label %.lr.ph.i, !llvm.loop !36

SDL_bsearch_r_REAL.exit:                          ; preds = %16, %18, %5
  %.0.i = phi ptr [ null, %5 ], [ %8, %16 ], [ null, %18 ]
  ret ptr %.0.i
}